; Function Attrs: mustprogress uwtable
define void @_ZN2cv6detail8tracking24TrackerContribFeatureSet10extractionERKSt6vectorINS_3MatESaIS4_EE(ptr noundef nonnull align 8 dereferenceable(56) %0, ptr noundef nonnull align 8 dereferenceable(24) %1) local_unnamed_addr #5 align 2 personality ptr @__gxx_personality_v0 {
  %3 = alloca %"class.cv::Mat", align 8
  %4 = getelementptr inbounds i8, ptr %0, i64 32
  %5 = load ptr, ptr %4, align 8
  %6 = getelementptr inbounds i8, ptr %0, i64 40
  %7 = load ptr, ptr %6, align 8
  %.not.i.i.i = icmp eq ptr %7, %5
  br i1 %.not.i.i.i, label %_ZN2cv6detail8tracking24TrackerContribFeatureSet14clearResponsesEv.exit, label %.lr.ph.i.i.i.i.i.i

.lr.ph.i.i.i.i.i.i:                               ; preds = %2, %.lr.ph.i.i.i.i.i.i
  %.05.i.i.i.i.i.i = phi ptr [ %8, %.lr.ph.i.i.i.i.i.i ], [ %5, %2 ]
  tail call void @_ZN2cv3MatD1Ev(ptr noundef nonnull align 8 dereferenceable(96) %.05.i.i.i.i.i.i) #15
  %8 = getelementptr inbounds i8, ptr %.05.i.i.i.i.i.i, i64 96
  %.not.i.i.i.i.i.i = icmp eq ptr %8, %7
  br i1 %.not.i.i.i.i.i.i, label %_ZSt8_DestroyIPN2cv3MatES1_EvT_S3_RSaIT0_E.exit.i.i.i, label %.lr.ph.i.i.i.i.i.i, !llvm.loop !4

_ZSt8_DestroyIPN2cv3MatES1_EvT_S3_RSaIT0_E.exit.i.i.i: ; preds = %.lr.ph.i.i.i.i.i.i
  store ptr %5, ptr %6, align 8
  %.pre = load ptr, ptr %4, align 8
  br label %_ZN2cv6detail8tracking24TrackerContribFeatureSet14clearResponsesEv.exit

_ZN2cv6detail8tracking24TrackerContribFeatureSet14clearResponsesEv.exit: ; preds = %2, %_ZSt8_DestroyIPN2cv3MatES1_EvT_S3_RSaIT0_E.exit.i.i.i
  %9 = phi ptr [ %5, %2 ], [ %.pre, %_ZSt8_DestroyIPN2cv3MatES1_EvT_S3_RSaIT0_E.exit.i.i.i ]
  %10 = getelementptr inbounds i8, ptr %0, i64 8
  %11 = getelementptr inbounds i8, ptr %0, i64 16
  %12 = load ptr, ptr %11, align 8
  %13 = load ptr, ptr %10, align 8
  %14 = ptrtoint ptr %12 to i64
  %15 = ptrtoint ptr %13 to i64
  %16 = sub i64 %14, %15
  %17 = sdiv exact i64 %16, 48
  %18 = ptrtoint ptr %5 to i64
  %19 = ptrtoint ptr %9 to i64
  %20 = sub i64 %18, %19
  %21 = sdiv exact i64 %20, 96
  %22 = icmp ult i64 %21, %17
  br i1 %22, label %23, label %25

23:                                               ; preds = %_ZN2cv6detail8tracking24TrackerContribFeatureSet14clearResponsesEv.exit
  %24 = sub nsw i64 %17, %21
  tail call void @_ZNSt6vectorIN2cv3MatESaIS1_EE17_M_default_appendEm(ptr noundef nonnull align 8 dereferenceable(24) %4, i64 noundef %24)
  br label %_ZNSt6vectorIN2cv3MatESaIS1_EE6resizeEm.exit

25:                                               ; preds = %_ZN2cv6detail8tracking24TrackerContribFeatureSet14clearResponsesEv.exit
  %26 = icmp ugt i64 %21, %17
  br i1 %26, label %27, label %_ZNSt6vectorIN2cv3MatESaIS1_EE6resizeEm.exit

27:                                               ; preds = %25
  %28 = getelementptr inbounds %"class.cv::Mat", ptr %9, i64 %17
  %.not.i.i = icmp eq ptr %5, %28
  br i1 %.not.i.i, label %_ZNSt6vectorIN2cv3MatESaIS1_EE6resizeEm.exit, label %.lr.ph.i.i.i.i.i

.lr.ph.i.i.i.i.i:                                 ; preds = %27, %.lr.ph.i.i.i.i.i
  %.05.i.i.i.i.i = phi ptr [ %29, %.lr.ph.i.i.i.i.i ], [ %28, %27 ]
  tail call void @_ZN2cv3MatD1Ev(ptr noundef nonnull align 8 dereferenceable(96) %.05.i.i.i.i.i) #15
  %29 = getelementptr inbounds i8, ptr %.05.i.i.i.i.i, i64 96
  %.not.i.i.i.i.i = icmp eq ptr %29, %5
  br i1 %.not.i.i.i.i.i, label %_ZSt8_DestroyIPN2cv3MatES1_EvT_S3_RSaIT0_E.exit.i.i, label %.lr.ph.i.i.i.i.i, !llvm.loop !4

_ZSt8_DestroyIPN2cv3MatES1_EvT_S3_RSaIT0_E.exit.i.i: ; preds = %.lr.ph.i.i.i.i.i
  store ptr %28, ptr %6, align 8
  br label %_ZNSt6vectorIN2cv3MatESaIS1_EE6resizeEm.exit

_ZNSt6vectorIN2cv3MatESaIS1_EE6resizeEm.exit:     ; preds = %23, %25, %27, %_ZSt8_DestroyIPN2cv3MatES1_EvT_S3_RSaIT0_E.exit.i.i
  %30 = load ptr, ptr %11, align 8
  %31 = load ptr, ptr %10, align 8
  %.not = icmp eq ptr %30, %31
  br i1 %.not, label %._crit_edge, label %.lr.ph

.lr.ph:                                           ; preds = %_ZNSt6vectorIN2cv3MatESaIS1_EE6resizeEm.exit, %39
  %.07 = phi i64 [ %40, %39 ], [ 0, %_ZNSt6vectorIN2cv3MatESaIS1_EE6resizeEm.exit ]
  call void @_ZN2cv3MatC1Ev(ptr noundef nonnull align 8 dereferenceable(96) %3) #15
  %32 = load ptr, ptr %10, align 8
  %33 = getelementptr inbounds %"struct.std::pair", ptr %32, i64 %.07, i32 1
  %34 = load ptr, ptr %33, align 8
  invoke void @_ZN2cv6detail8tracking14TrackerFeature7computeERKSt6vectorINS_3MatESaIS4_EERS4_(ptr noundef nonnull align 8 dereferenceable(8) %34, ptr noundef nonnull align 8 dereferenceable(24) %1, ptr noundef nonnull align 8 dereferenceable(96) %3)
          to label %35 unwind label %48

35:                                               ; preds = %.lr.ph
  %36 = load ptr, ptr %4, align 8
  %37 = getelementptr inbounds %"class.cv::Mat", ptr %36, i64 %.07
  %38 = invoke noundef nonnull align 8 dereferenceable(96) ptr @_ZN2cv3MataSERKS0_(ptr noundef nonnull align 8 dereferenceable(96) %37, ptr noundef nonnull align 8 dereferenceable(96) %3)
          to label %39 unwind label %48

39:                                               ; preds = %35
  call void @_ZN2cv3MatD1Ev(ptr noundef nonnull align 8 dereferenceable(96) %3) #15
  %40 = add nuw i64 %.07, 1
  %41 = load ptr, ptr %11, align 8
  %42 = load ptr, ptr %10, align 8
  %43 = ptrtoint ptr %41 to i64
  %44 = ptrtoint ptr %42 to i64
  %45 = sub i64 %43, %44
  %46 = sdiv exact i64 %45, 48
  %47 = icmp ult i64 %40, %46
  br i1 %47, label %.lr.ph, label %._crit_edge, !llvm.loop !7

48:                                               ; preds = %35, %.lr.ph
  %49 = landingpad { ptr, i32 }
          cleanup
  call void @_ZN2cv3MatD1Ev(ptr noundef nonnull align 8 dereferenceable(96) %3) #15
  resume { ptr, i32 } %49

._crit_edge:                                      ; preds = %39, %_ZNSt6vectorIN2cv3MatESaIS1_EE6resizeEm.exit
  %50 = load i8, ptr %0, align 8
  %51 = trunc i8 %50 to i1
  br i1 %51, label %53, label %52

52:                                               ; preds = %._crit_edge
  store i8 1, ptr %0, align 8
  br label %53

53:                                               ; preds = %52, %._crit_edge
  ret void
}